; Function Attrs: mustprogress nounwind uwtable
define internal fastcc void @_ZN4llvm12DenseMapBaseINS_8DenseMapIN12_GLOBAL__N_111ModelledPHIENS_6detail13DenseSetEmptyENS2_12DenseMapInfoIS3_EENS4_12DenseSetPairIS3_EEEES3_S5_S7_S9_E11getEmptyKeyEv(ptr dead_on_unwind noalias writable align 8 %0) unnamed_addr #0 align 2 {
  %2 = load atomic i8, ptr @_ZGVZN12_GLOBAL__N_112DenseMapInfoINS_11ModelledPHIEE11getEmptyKeyEvE5Dummy acquire, align 8
  %3 = icmp eq i8 %2, 0
  br i1 %3, label %4, label %_ZN12_GLOBAL__N_112DenseMapInfoINS_11ModelledPHIEE11getEmptyKeyEv.exit, !prof !164

4:                                                ; preds = %1
  %5 = tail call i32 @__cxa_guard_acquire(ptr nonnull @_ZGVZN12_GLOBAL__N_112DenseMapInfoINS_11ModelledPHIEE11getEmptyKeyEvE5Dummy) #19
  %.not.i = icmp eq i32 %5, 0
  br i1 %.not.i, label %_ZN12_GLOBAL__N_112DenseMapInfoINS_11ModelledPHIEE11getEmptyKeyEv.exit, label %6

6:                                                ; preds = %4
  tail call fastcc void @_ZN12_GLOBAL__N_111ModelledPHI11createDummyEm(ptr dead_on_unwind noalias nonnull writable align 8 @_ZZN12_GLOBAL__N_112DenseMapInfoINS_11ModelledPHIEE11getEmptyKeyEvE5Dummy, i64 noundef 0)
  %7 = tail call i32 @__cxa_atexit(ptr nonnull @_ZN12_GLOBAL__N_111ModelledPHID2Ev, ptr nonnull @_ZZN12_GLOBAL__N_112DenseMapInfoINS_11ModelledPHIEE11getEmptyKeyEvE5Dummy, ptr nonnull @__dso_handle) #19
  tail call void @__cxa_guard_release(ptr nonnull @_ZGVZN12_GLOBAL__N_112DenseMapInfoINS_11ModelledPHIEE11getEmptyKeyEvE5Dummy) #19
  br label %_ZN12_GLOBAL__N_112DenseMapInfoINS_11ModelledPHIEE11getEmptyKeyEv.exit

_ZN12_GLOBAL__N_112DenseMapInfoINS_11ModelledPHIEE11getEmptyKeyEv.exit: ; preds = %1, %4, %6
  %8 = getelementptr inbounds i8, ptr %0, i64 16
  tail call void @_ZN4llvm15SmallVectorBaseIjEC2EPvm(ptr noundef nonnull align 8 dereferenceable(16) %0, ptr noundef nonnull %8, i64 noundef 4) #19
  %9 = tail call noundef zeroext i1 @_ZNK4llvm15SmallVectorBaseIjE5emptyEv(ptr noundef nonnull align 8 dereferenceable(16) @_ZZN12_GLOBAL__N_112DenseMapInfoINS_11ModelledPHIEE11getEmptyKeyEvE5Dummy) #19
  br i1 %9, label %_ZN4llvm11SmallVectorIPNS_5ValueELj4EEC2ERKS3_.exit.i, label %10

10:                                               ; preds = %_ZN12_GLOBAL__N_112DenseMapInfoINS_11ModelledPHIEE11getEmptyKeyEv.exit
  %11 = tail call noundef nonnull align 8 dereferenceable(16) ptr @_ZN4llvm15SmallVectorImplIPNS_5ValueEEaSERKS3_(ptr noundef nonnull align 8 dereferenceable(16) %0, ptr noundef nonnull align 8 dereferenceable(16) @_ZZN12_GLOBAL__N_112DenseMapInfoINS_11ModelledPHIEE11getEmptyKeyEvE5Dummy)
  br label %_ZN4llvm11SmallVectorIPNS_5ValueELj4EEC2ERKS3_.exit.i

_ZN4llvm11SmallVectorIPNS_5ValueELj4EEC2ERKS3_.exit.i: ; preds = %10, %_ZN12_GLOBAL__N_112DenseMapInfoINS_11ModelledPHIEE11getEmptyKeyEv.exit
  %12 = getelementptr inbounds nuw i8, ptr %0, i64 48
  %13 = getelementptr inbounds i8, ptr %0, i64 64
  tail call void @_ZN4llvm15SmallVectorBaseIjEC2EPvm(ptr noundef nonnull align 8 dereferenceable(16) %12, ptr noundef nonnull %13, i64 noundef 4) #19
  %14 = tail call noundef zeroext i1 @_ZNK4llvm15SmallVectorBaseIjE5emptyEv(ptr noundef nonnull align 8 dereferenceable(16) getelementptr inbounds nuw (i8, ptr @_ZZN12_GLOBAL__N_112DenseMapInfoINS_11ModelledPHIEE11getEmptyKeyEvE5Dummy, i64 48)) #19
  br i1 %14, label %_ZN12_GLOBAL__N_111ModelledPHIC2ERKS0_.exit, label %15

15:                                               ; preds = %_ZN4llvm11SmallVectorIPNS_5ValueELj4EEC2ERKS3_.exit.i
  %16 = tail call noundef nonnull align 8 dereferenceable(16) ptr @_ZN4llvm15SmallVectorImplIPNS_10BasicBlockEEaSERKS3_(ptr noundef nonnull align 8 dereferenceable(16) %12, ptr noundef nonnull align 8 dereferenceable(16) getelementptr inbounds nuw (i8, ptr @_ZZN12_GLOBAL__N_112DenseMapInfoINS_11ModelledPHIEE11getEmptyKeyEvE5Dummy, i64 48))
  br label %_ZN12_GLOBAL__N_111ModelledPHIC2ERKS0_.exit

_ZN12_GLOBAL__N_111ModelledPHIC2ERKS0_.exit:      ; preds = %_ZN4llvm11SmallVectorIPNS_5ValueELj4EEC2ERKS3_.exit.i, %15
  ret void
}